target datalayout = "e-m:e-p270:32:32-p271:32:32-p272:64:64-i64:64-i128:128-f80:128-n8:16:32:64-S128"
target triple = "x86_64-pc-linux-gnu"

%struct.Node = type { i32 }
%struct.List = type { i32, i32, i32, ptr, [0 x %union.ListCell] }
%union.ListCell = type { ptr }
%struct.QualCost = type { double, double }
%struct.Expr = type { i32 }
%struct.RestrictInfo = type { i32, ptr, i8, i8, i8, i8, i8, i8, i32, i32, i32, ptr, ptr, ptr, ptr, ptr, ptr, ptr, i32, ptr, %struct.QualCost, double, double, ptr, ptr, ptr, ptr, ptr, ptr, i8, i32, double, double, double, double, i32, i32 }
%struct.OpExpr = type { %struct.Expr, i32, i32, i32, i8, i32, i32, ptr, i32 }

; Function Attrs: inlinehint nounwind uwtable
define internal ptr @list_nth_cell(ptr noundef %0, i32 noundef %1) #5 {
  %3 = alloca ptr, align 8
  %4 = alloca i32, align 4
  store ptr %0, ptr %3, align 8
  store i32 %1, ptr %4, align 4
  %5 = load ptr, ptr %3, align 8
  %6 = getelementptr inbounds nuw %struct.List, ptr %5, i32 0, i32 3
  %7 = load ptr, ptr %6, align 8
  %8 = load i32, ptr %4, align 4
  %9 = sext i32 %8 to i64
  %10 = getelementptr inbounds %union.ListCell, ptr %7, i64 %9
  ret ptr %10
}

; Function Attrs: inlinehint nounwind uwtable
define internal i32 @list_length(ptr noundef %0) #5 {
  %2 = alloca ptr, align 8
  store ptr %0, ptr %2, align 8
  %3 = load ptr, ptr %2, align 8
  %4 = icmp ne ptr %3, null
  br i1 %4, label %5, label %9

5:                                                ; preds = %1
  %6 = load ptr, ptr %2, align 8
  %7 = getelementptr inbounds nuw %struct.List, ptr %6, i32 0, i32 1
  %8 = load i32, ptr %7, align 4
  br label %10

9:                                                ; preds = %1
  br label %10

10:                                               ; preds = %9, %5
  %11 = phi i32 [ %8, %5 ], [ 0, %9 ]
  ret i32 %11
}

; Function Attrs: inlinehint nounwind uwtable
define internal zeroext i1 @is_opclause(ptr noundef %0) #5 {
  %2 = alloca ptr, align 8
  store ptr %0, ptr %2, align 8
  %3 = load ptr, ptr %2, align 8
  %4 = icmp ne ptr %3, null
  br i1 %4, label %5, label %10

5:                                                ; preds = %1
  %6 = load ptr, ptr %2, align 8
  %7 = getelementptr inbounds nuw %struct.Node, ptr %6, i32 0, i32 0
  %8 = load i32, ptr %7, align 4
  %9 = icmp eq i32 %8, 17
  br label %10

10:                                               ; preds = %5, %1
  %11 = phi i1 [ false, %1 ], [ %9, %5 ]
  ret i1 %11
}

; Function Attrs: nounwind uwtable
define internal void @check_hashjoinable(ptr noundef %0) #0 {
  %2 = alloca ptr, align 8
  %3 = alloca ptr, align 8
  %4 = alloca i32, align 4
  %5 = alloca ptr, align 8
  %6 = alloca i32, align 4
  store ptr %0, ptr %2, align 8
  call void @llvm.lifetime.start.p0(i64 8, ptr %3) #6
  %7 = load ptr, ptr %2, align 8
  %8 = getelementptr inbounds nuw %struct.RestrictInfo, ptr %7, i32 0, i32 1
  %9 = load ptr, ptr %8, align 8
  store ptr %9, ptr %3, align 8
  call void @llvm.lifetime.start.p0(i64 4, ptr %4) #6
  call void @llvm.lifetime.start.p0(i64 8, ptr %5) #6
  %10 = load ptr, ptr %2, align 8
  %11 = getelementptr inbounds nuw %struct.RestrictInfo, ptr %10, i32 0, i32 4
  %12 = load i8, ptr %11, align 2, !range !6, !noundef !7
  %13 = trunc i8 %12 to i1
  br i1 %13, label %14, label %15

14:                                               ; preds = %1
  store i32 1, ptr %6, align 4
  br label %47

15:                                               ; preds = %1
  %16 = load ptr, ptr %3, align 8
  %17 = call zeroext i1 @is_opclause(ptr noundef %16)
  br i1 %17, label %19, label %18

18:                                               ; preds = %15
  store i32 1, ptr %6, align 4
  br label %47

19:                                               ; preds = %15
  %20 = load ptr, ptr %3, align 8
  %21 = getelementptr inbounds nuw %struct.OpExpr, ptr %20, i32 0, i32 7
  %22 = load ptr, ptr %21, align 8
  %23 = call i32 @list_length(ptr noundef %22)
  %24 = icmp ne i32 %23, 2
  br i1 %24, label %25, label %26

25:                                               ; preds = %19
  store i32 1, ptr %6, align 4
  br label %47

26:                                               ; preds = %19
  %27 = load ptr, ptr %3, align 8
  %28 = getelementptr inbounds nuw %struct.OpExpr, ptr %27, i32 0, i32 1
  %29 = load i32, ptr %28, align 4
  store i32 %29, ptr %4, align 4
  %30 = load ptr, ptr %3, align 8
  %31 = getelementptr inbounds nuw %struct.OpExpr, ptr %30, i32 0, i32 7
  %32 = load ptr, ptr %31, align 8
  %33 = call ptr @list_nth_cell(ptr noundef %32, i32 noundef 0)
  %34 = load ptr, ptr %33, align 8
  store ptr %34, ptr %5, align 8
  %35 = load i32, ptr %4, align 4
  %36 = load ptr, ptr %5, align 8
  %37 = call i32 @exprType(ptr noundef %36)
  %38 = call zeroext i1 @op_hashjoinable(i32 noundef %35, i32 noundef %37)
  br i1 %38, label %39, label %46

39:                                               ; preds = %26
  %40 = load ptr, ptr %2, align 8
  %41 = call zeroext i1 @contain_volatile_functions(ptr noundef %40)
  br i1 %41, label %46, label %42

42:                                               ; preds = %39
  %43 = load i32, ptr %4, align 4
  %44 = load ptr, ptr %2, align 8
  %45 = getelementptr inbounds nuw %struct.RestrictInfo, ptr %44, i32 0, i32 30
  store i32 %43, ptr %45, align 4
  br label %46

46:                                               ; preds = %42, %39, %26
  store i32 0, ptr %6, align 4
  br label %47

47:                                               ; preds = %46, %25, %18, %14
  call void @llvm.lifetime.end.p0(i64 8, ptr %5) #6
  call void @llvm.lifetime.end.p0(i64 4, ptr %4) #6
  call void @llvm.lifetime.end.p0(i64 8, ptr %3) #6
  %48 = load i32, ptr %6, align 4
  switch i32 %48, label %50 [
    i32 0, label %49
    i32 1, label %49
  ]

49:                                               ; preds = %47, %47
  ret void

50:                                               ; preds = %47
  unreachable
}

; Function Attrs: nounwind uwtable
define internal void @check_mergejoinable(ptr noundef %0) #0 {
  %2 = alloca ptr, align 8
  %3 = alloca ptr, align 8
  %4 = alloca i32, align 4
  %5 = alloca ptr, align 8
  %6 = alloca i32, align 4
  store ptr %0, ptr %2, align 8
  call void @llvm.lifetime.start.p0(i64 8, ptr %3) #6
  %7 = load ptr, ptr %2, align 8
  %8 = getelementptr inbounds nuw %struct.RestrictInfo, ptr %7, i32 0, i32 1
  %9 = load ptr, ptr %8, align 8
  store ptr %9, ptr %3, align 8
  call void @llvm.lifetime.start.p0(i64 4, ptr %4) #6
  call void @llvm.lifetime.start.p0(i64 8, ptr %5) #6
  %10 = load ptr, ptr %2, align 8
  %11 = getelementptr inbounds nuw %struct.RestrictInfo, ptr %10, i32 0, i32 4
  %12 = load i8, ptr %11, align 2, !range !6, !noundef !7
  %13 = trunc i8 %12 to i1
  br i1 %13, label %14, label %15

14:                                               ; preds = %1
  store i32 1, ptr %6, align 4
  br label %48

15:                                               ; preds = %1
  %16 = load ptr, ptr %3, align 8
  %17 = call zeroext i1 @is_opclause(ptr noundef %16)
  br i1 %17, label %19, label %18

18:                                               ; preds = %15
  store i32 1, ptr %6, align 4
  br label %48

19:                                               ; preds = %15
  %20 = load ptr, ptr %3, align 8
  %21 = getelementptr inbounds nuw %struct.OpExpr, ptr %20, i32 0, i32 7
  %22 = load ptr, ptr %21, align 8
  %23 = call i32 @list_length(ptr noundef %22)
  %24 = icmp ne i32 %23, 2
  br i1 %24, label %25, label %26

25:                                               ; preds = %19
  store i32 1, ptr %6, align 4
  br label %48

26:                                               ; preds = %19
  %27 = load ptr, ptr %3, align 8
  %28 = getelementptr inbounds nuw %struct.OpExpr, ptr %27, i32 0, i32 1
  %29 = load i32, ptr %28, align 4
  store i32 %29, ptr %4, align 4
  %30 = load ptr, ptr %3, align 8
  %31 = getelementptr inbounds nuw %struct.OpExpr, ptr %30, i32 0, i32 7
  %32 = load ptr, ptr %31, align 8
  %33 = call ptr @list_nth_cell(ptr noundef %32, i32 noundef 0)
  %34 = load ptr, ptr %33, align 8
  store ptr %34, ptr %5, align 8
  %35 = load i32, ptr %4, align 4
  %36 = load ptr, ptr %5, align 8
  %37 = call i32 @exprType(ptr noundef %36)
  %38 = call zeroext i1 @op_mergejoinable(i32 noundef %35, i32 noundef %37)
  br i1 %38, label %39, label %47

39:                                               ; preds = %26
  %40 = load ptr, ptr %2, align 8
  %41 = call zeroext i1 @contain_volatile_functions(ptr noundef %40)
  br i1 %41, label %47, label %42

42:                                               ; preds = %39
  %43 = load i32, ptr %4, align 4
  %44 = call ptr @get_mergejoin_opfamilies(i32 noundef %43)
  %45 = load ptr, ptr %2, align 8
  %46 = getelementptr inbounds nuw %struct.RestrictInfo, ptr %45, i32 0, i32 23
  store ptr %44, ptr %46, align 8
  br label %47

47:                                               ; preds = %42, %39, %26
  store i32 0, ptr %6, align 4
  br label %48

48:                                               ; preds = %47, %25, %18, %14
  call void @llvm.lifetime.end.p0(i64 8, ptr %5) #6
  call void @llvm.lifetime.end.p0(i64 4, ptr %4) #6
  call void @llvm.lifetime.end.p0(i64 8, ptr %3) #6
  %49 = load i32, ptr %6, align 4
  switch i32 %49, label %51 [
    i32 0, label %50
    i32 1, label %50
  ]

50:                                               ; preds = %48, %48
  ret void

51:                                               ; preds = %48
  unreachable
}

; Function Attrs: nounwind uwtable
define dso_local ptr @build_implied_join_equality(ptr noundef %0, i32 noundef %1, i32 noundef %2, ptr noundef %3, ptr noundef %4, ptr noundef %5, i32 noundef %6) #0 {
  %8 = alloca ptr, align 8
  %9 = alloca i32, align 4
  %10 = alloca i32, align 4
  %11 = alloca ptr, align 8
  %12 = alloca ptr, align 8
  %13 = alloca ptr, align 8
  %14 = alloca i32, align 4
  %15 = alloca ptr, align 8
  %16 = alloca ptr, align 8
  store ptr %0, ptr %8, align 8
  store i32 %1, ptr %9, align 4
  store i32 %2, ptr %10, align 4
  store ptr %3, ptr %11, align 8
  store ptr %4, ptr %12, align 8
  store ptr %5, ptr %13, align 8
  store i32 %6, ptr %14, align 4
  call void @llvm.lifetime.start.p0(i64 8, ptr %15) #6
  call void @llvm.lifetime.start.p0(i64 8, ptr %16) #6
  %17 = load i32, ptr %9, align 4
  %18 = load ptr, ptr %11, align 8
  %19 = call ptr @copyObjectImpl(ptr noundef %18)
  %20 = load ptr, ptr %12, align 8
  %21 = call ptr @copyObjectImpl(ptr noundef %20)
  %22 = load i32, ptr %10, align 4
  %23 = call ptr @make_opclause(i32 noundef %17, i32 noundef 16, i1 noundef zeroext false, ptr noundef %19, ptr noundef %21, i32 noundef 0, i32 noundef %22)
  store ptr %23, ptr %16, align 8
  %24 = load ptr, ptr %8, align 8
  %25 = load ptr, ptr %16, align 8
  %26 = load i32, ptr %14, align 4
  %27 = load ptr, ptr %13, align 8
  %28 = call ptr @make_restrictinfo(ptr noundef %24, ptr noundef %25, i1 noundef zeroext true, i1 noundef zeroext false, i1 noundef zeroext false, i1 noundef zeroext false, i32 noundef %26, ptr noundef %27, ptr noundef null, ptr noundef null)
  store ptr %28, ptr %15, align 8
  %29 = load ptr, ptr %15, align 8
  call void @check_mergejoinable(ptr noundef %29)
  %30 = load ptr, ptr %15, align 8
  call void @check_hashjoinable(ptr noundef %30)
  %31 = load ptr, ptr %15, align 8
  call void @check_memoizable(ptr noundef %31)
  %32 = load ptr, ptr %15, align 8
  call void @llvm.lifetime.end.p0(i64 8, ptr %16) #6
  call void @llvm.lifetime.end.p0(i64 8, ptr %15) #6
  ret ptr %32
}