; Function Attrs: nounwind uwtable
define dso_local ptr @build_implied_join_equality(ptr noundef %0, i32 noundef %1, i32 noundef %2, ptr noundef %3, ptr noundef %4, ptr noundef %5, i32 noundef %6) local_unnamed_addr #0 {
  %8 = tail call ptr @copyObjectImpl(ptr noundef %3) #7
  %9 = tail call ptr @copyObjectImpl(ptr noundef %4) #7
  %10 = tail call ptr @make_opclause(i32 noundef %1, i32 noundef 16, i1 noundef zeroext false, ptr noundef %8, ptr noundef %9, i32 noundef 0, i32 noundef %2) #7
  %11 = tail call ptr @make_restrictinfo(ptr noundef %0, ptr noundef %10, i1 noundef zeroext true, i1 noundef zeroext false, i1 noundef zeroext false, i1 noundef zeroext false, i32 noundef %6, ptr noundef %5, ptr noundef null, ptr noundef null) #7
  %12 = getelementptr inbounds nuw i8, ptr %11, i64 8
  %13 = load ptr, ptr %12, align 8
  %14 = getelementptr inbounds nuw i8, ptr %11, i64 18
  %15 = load i8, ptr %14, align 2, !range !4, !noundef !5
  %16 = trunc nuw i8 %15 to i1
  %.not.i.i = icmp eq ptr %13, null
  %or.cond.i = select i1 %16, i1 true, i1 %.not.i.i
  br i1 %or.cond.i, label %check_mergejoinable.exit, label %is_opclause.exit.i

is_opclause.exit.i:                               ; preds = %7
  %17 = load i32, ptr %13, align 4
  %18 = icmp eq i32 %17, 17
  br i1 %18, label %19, label %check_mergejoinable.exit

19:                                               ; preds = %is_opclause.exit.i
  %20 = getelementptr inbounds nuw i8, ptr %13, i64 32
  %21 = load ptr, ptr %20, align 8
  %.not.i10.i = icmp eq ptr %21, null
  br i1 %.not.i10.i, label %check_mergejoinable.exit, label %list_length.exit.i

list_length.exit.i:                               ; preds = %19
  %22 = getelementptr inbounds nuw i8, ptr %21, i64 4
  %23 = load i32, ptr %22, align 4
  %.not.i = icmp eq i32 %23, 2
  br i1 %.not.i, label %24, label %check_mergejoinable.exit

24:                                               ; preds = %list_length.exit.i
  %25 = getelementptr inbounds nuw i8, ptr %13, i64 4
  %26 = load i32, ptr %25, align 4
  %27 = getelementptr i8, ptr %21, i64 16
  %.val.i = load ptr, ptr %27, align 8
  %28 = load ptr, ptr %.val.i, align 8
  %29 = tail call i32 @exprType(ptr noundef %28) #7
  %30 = tail call zeroext i1 @op_mergejoinable(i32 noundef %26, i32 noundef %29) #7
  br i1 %30, label %31, label %check_mergejoinable.exit

31:                                               ; preds = %24
  %32 = tail call zeroext i1 @contain_volatile_functions(ptr noundef nonnull %11) #7
  br i1 %32, label %check_mergejoinable.exit, label %33

33:                                               ; preds = %31
  %34 = tail call ptr @get_mergejoin_opfamilies(i32 noundef %26) #7
  %35 = getelementptr inbounds nuw i8, ptr %11, i64 144
  store ptr %34, ptr %35, align 8
  br label %check_mergejoinable.exit

check_mergejoinable.exit:                         ; preds = %7, %is_opclause.exit.i, %19, %list_length.exit.i, %24, %31, %33
  %36 = load ptr, ptr %12, align 8
  %37 = load i8, ptr %14, align 2, !range !4, !noundef !5
  %38 = trunc nuw i8 %37 to i1
  %.not.i.i11 = icmp eq ptr %36, null
  %or.cond.i12 = select i1 %38, i1 true, i1 %.not.i.i11
  br i1 %or.cond.i12, label %check_hashjoinable.exit, label %is_opclause.exit.i13

is_opclause.exit.i13:                             ; preds = %check_mergejoinable.exit
  %39 = load i32, ptr %36, align 4
  %40 = icmp eq i32 %39, 17
  br i1 %40, label %41, label %check_hashjoinable.exit

41:                                               ; preds = %is_opclause.exit.i13
  %42 = getelementptr inbounds nuw i8, ptr %36, i64 32
  %43 = load ptr, ptr %42, align 8
  %.not.i10.i14 = icmp eq ptr %43, null
  br i1 %.not.i10.i14, label %check_hashjoinable.exit, label %list_length.exit.i15

list_length.exit.i15:                             ; preds = %41
  %44 = getelementptr inbounds nuw i8, ptr %43, i64 4
  %45 = load i32, ptr %44, align 4
  %.not.i16 = icmp eq i32 %45, 2
  br i1 %.not.i16, label %46, label %check_hashjoinable.exit

46:                                               ; preds = %list_length.exit.i15
  %47 = getelementptr inbounds nuw i8, ptr %36, i64 4
  %48 = load i32, ptr %47, align 4
  %49 = getelementptr i8, ptr %43, i64 16
  %.val.i17 = load ptr, ptr %49, align 8
  %50 = load ptr, ptr %.val.i17, align 8
  %51 = tail call i32 @exprType(ptr noundef %50) #7
  %52 = tail call zeroext i1 @op_hashjoinable(i32 noundef %48, i32 noundef %51) #7
  br i1 %52, label %53, label %check_hashjoinable.exit

53:                                               ; preds = %46
  %54 = tail call zeroext i1 @contain_volatile_functions(ptr noundef nonnull %11) #7
  br i1 %54, label %check_hashjoinable.exit, label %55

55:                                               ; preds = %53
  %56 = getelementptr inbounds nuw i8, ptr %11, i64 196
  store i32 %48, ptr %56, align 4
  br label %check_hashjoinable.exit

check_hashjoinable.exit:                          ; preds = %check_mergejoinable.exit, %is_opclause.exit.i13, %41, %list_length.exit.i15, %46, %53, %55
  tail call fastcc void @check_memoizable(ptr noundef nonnull %11)
  ret ptr %11
}